target datalayout = "e-m:e-p270:32:32-p271:32:32-p272:64:64-i64:64-i128:128-f80:128-n8:16:32:64-S128"
target triple = "x86_64-pc-linux-gnu"

; Function Attrs: nounwind uwtable
define i32 @ossl_DER_w_octet_string_uint32(ptr noundef %0, i32 noundef %1, i32 noundef %2) #0 {
  %4 = alloca ptr, align 8
  %5 = alloca i32, align 4
  %6 = alloca i32, align 4
  %7 = alloca [4 x i8], align 1
  %8 = alloca ptr, align 8
  store ptr %0, ptr %4, align 8, !tbaa !3
  store i32 %1, ptr %5, align 4, !tbaa !8
  store i32 %2, ptr %6, align 4, !tbaa !8
  call void @llvm.lifetime.start.p0(i64 4, ptr %7) #5
  call void @llvm.memset.p0.i64(ptr align 1 %7, i8 0, i64 4, i1 false)
  call void @llvm.lifetime.start.p0(i64 8, ptr %8) #5
  %9 = getelementptr inbounds [4 x i8], ptr %7, i64 0, i64 0
  %10 = getelementptr inbounds nuw i8, ptr %9, i64 3
  store ptr %10, ptr %8, align 8, !tbaa !10
  br label %11

11:                                               ; preds = %14, %3
  %12 = load i32, ptr %6, align 4, !tbaa !8
  %13 = icmp ugt i32 %12, 0
  br i1 %13, label %14, label %22

14:                                               ; preds = %11
  %15 = load i32, ptr %6, align 4, !tbaa !8
  %16 = and i32 %15, 255
  %17 = trunc i32 %16 to i8
  %18 = load ptr, ptr %8, align 8, !tbaa !10
  %19 = getelementptr inbounds i8, ptr %18, i32 -1
  store ptr %19, ptr %8, align 8, !tbaa !10
  store i8 %17, ptr %18, align 1, !tbaa !14
  %20 = load i32, ptr %6, align 4, !tbaa !8
  %21 = lshr i32 %20, 8
  store i32 %21, ptr %6, align 4, !tbaa !8
  br label %11, !llvm.loop !15

22:                                               ; preds = %11
  %23 = load ptr, ptr %4, align 8, !tbaa !3
  %24 = load i32, ptr %5, align 4, !tbaa !8
  %25 = getelementptr inbounds [4 x i8], ptr %7, i64 0, i64 0
  %26 = call i32 @ossl_DER_w_octet_string(ptr noundef %23, i32 noundef %24, ptr noundef %25, i64 noundef 4)
  call void @llvm.lifetime.end.p0(i64 8, ptr %8) #5
  call void @llvm.lifetime.end.p0(i64 4, ptr %7) #5
  ret i32 %26
}