; Function Attrs: nounwind uwtable
define range(i32 0, 2) i32 @ossl_DER_w_octet_string_uint32(ptr noundef %0, i32 noundef %1, i32 noundef %2) local_unnamed_addr #0 {
  %4 = alloca [4 x i8], align 4
  call void @llvm.lifetime.start.p0(i64 4, ptr nonnull %4) #4
  store i32 0, ptr %4, align 4
  %.not6 = icmp eq i32 %2, 0
  br i1 %.not6, label %._crit_edge, label %.lr.ph.preheader

.lr.ph.preheader:                                 ; preds = %3
  %5 = getelementptr inbounds nuw i8, ptr %4, i64 3
  br label %.lr.ph

.lr.ph:                                           ; preds = %.lr.ph.preheader, %.lr.ph
  %.08 = phi ptr [ %7, %.lr.ph ], [ %5, %.lr.ph.preheader ]
  %.057 = phi i32 [ %8, %.lr.ph ], [ %2, %.lr.ph.preheader ]
  %6 = trunc i32 %.057 to i8
  %7 = getelementptr inbounds i8, ptr %.08, i64 -1
  store i8 %6, ptr %.08, align 1, !tbaa !8
  %8 = lshr i32 %.057, 8
  %.not = icmp ult i32 %.057, 256
  br i1 %.not, label %._crit_edge, label %.lr.ph, !llvm.loop !9

._crit_edge:                                      ; preds = %.lr.ph, %3
  %9 = call i32 @ossl_DER_w_octet_string(ptr noundef %0, i32 noundef %1, ptr noundef nonnull %4, i64 noundef 4)
  call void @llvm.lifetime.end.p0(i64 4, ptr nonnull %4) #4
  ret i32 %9
}